target datalayout = "e-m:e-p270:32:32-p271:32:32-p272:64:64-i64:64-i128:128-f80:128-n8:16:32:64-S128"
target triple = "x86_64-pc-linux-gnu"

%struct.stat = type { i64, i64, i64, i32, i32, i32, i32, i64, i64, i64, i64, %struct.timespec, %struct.timespec, %struct.timespec, [3 x i64] }
%struct.timespec = type { i64, i64 }
%struct.JLI_List_ = type { ptr, i64, i64 }
%struct.__ctx_args = type { i32, ptr, ptr, i8, ptr }

@stopExpansion = internal global i8 0, align 1
@firstAppArgIndex = internal global i32 -1, align 4
@.str = private unnamed_addr constant [9 x i8] c"--source\00", align 1
@.str.18 = private unnamed_addr constant [2 x i8] c"r\00", align 1
@.str.19 = private unnamed_addr constant [27 x i8] c"Error: could not open `%s'\00", align 1
@.str.20 = private unnamed_addr constant [57 x i8] c"Error: Argument file size should not be larger than %lu.\00", align 1
@.str.21 = private unnamed_addr constant [25 x i8] c"Error: Failed to read %s\00", align 1

; Function Attrs: nounwind uwtable
define internal ptr @readArgFile(ptr noundef %0) #0 {
  %2 = alloca ptr, align 8
  %3 = alloca ptr, align 8
  %4 = alloca [4096 x i8], align 16
  %5 = alloca ptr, align 8
  %6 = alloca %struct.__ctx_args, align 8
  %7 = alloca i64, align 8
  %8 = alloca ptr, align 8
  store ptr %0, ptr %3, align 8
  %9 = getelementptr inbounds %struct.__ctx_args, ptr %6, i32 0, i32 0
  store i32 0, ptr %9, align 8
  %10 = call ptr @JLI_List_new(i64 noundef 4)
  %11 = getelementptr inbounds %struct.__ctx_args, ptr %6, i32 0, i32 4
  store ptr %10, ptr %11, align 8
  %12 = getelementptr inbounds %struct.__ctx_args, ptr %6, i32 0, i32 3
  store i8 34, ptr %12, align 8
  %13 = call ptr @JLI_List_new(i64 noundef 8)
  store ptr %13, ptr %5, align 8
  br label %14

14:                                               ; preds = %44, %1
  %15 = load ptr, ptr %3, align 8
  %16 = call i32 @feof(ptr noundef %15) #8
  %17 = icmp ne i32 %16, 0
  %18 = xor i1 %17, true
  br i1 %18, label %19, label %45

19:                                               ; preds = %14
  %20 = getelementptr inbounds [4096 x i8], ptr %4, i64 0, i64 0
  %21 = load ptr, ptr %3, align 8
  %22 = call i64 @fread(ptr noundef %20, i64 noundef 1, i64 noundef 4096, ptr noundef %21)
  store i64 %22, ptr %7, align 8
  %23 = load ptr, ptr %3, align 8
  %24 = call i32 @ferror(ptr noundef %23) #8
  %25 = icmp ne i32 %24, 0
  br i1 %25, label %26, label %28

26:                                               ; preds = %19
  %27 = load ptr, ptr %5, align 8
  call void @JLI_List_free(ptr noundef %27)
  store ptr null, ptr %2, align 8
  br label %71

28:                                               ; preds = %19
  %29 = getelementptr inbounds [4096 x i8], ptr %4, i64 0, i64 0
  %30 = getelementptr inbounds %struct.__ctx_args, ptr %6, i32 0, i32 1
  store ptr %29, ptr %30, align 8
  %31 = getelementptr inbounds [4096 x i8], ptr %4, i64 0, i64 0
  %32 = load i64, ptr %7, align 8
  %33 = getelementptr inbounds i8, ptr %31, i64 %32
  %34 = getelementptr inbounds %struct.__ctx_args, ptr %6, i32 0, i32 2
  store ptr %33, ptr %34, align 8
  %35 = call ptr @nextToken(ptr noundef %6)
  store ptr %35, ptr %8, align 8
  br label %36

36:                                               ; preds = %39, %28
  %37 = load ptr, ptr %8, align 8
  %38 = icmp ne ptr %37, null
  br i1 %38, label %39, label %44

39:                                               ; preds = %36
  %40 = load ptr, ptr %8, align 8
  call void @checkArg(ptr noundef %40)
  %41 = load ptr, ptr %5, align 8
  %42 = load ptr, ptr %8, align 8
  call void @JLI_List_add(ptr noundef %41, ptr noundef %42)
  %43 = call ptr @nextToken(ptr noundef %6)
  store ptr %43, ptr %8, align 8
  br label %36, !llvm.loop !12

44:                                               ; preds = %36
  br label %14, !llvm.loop !13

45:                                               ; preds = %14
  %46 = getelementptr inbounds %struct.__ctx_args, ptr %6, i32 0, i32 0
  %47 = load i32, ptr %46, align 8
  %48 = icmp eq i32 %47, 5
  br i1 %48, label %53, label %49

49:                                               ; preds = %45
  %50 = getelementptr inbounds %struct.__ctx_args, ptr %6, i32 0, i32 0
  %51 = load i32, ptr %50, align 8
  %52 = icmp eq i32 %51, 2
  br i1 %52, label %53, label %67

53:                                               ; preds = %49, %45
  %54 = getelementptr inbounds %struct.__ctx_args, ptr %6, i32 0, i32 4
  %55 = load ptr, ptr %54, align 8
  %56 = getelementptr inbounds %struct.JLI_List_, ptr %55, i32 0, i32 1
  %57 = load i64, ptr %56, align 8
  %58 = icmp ne i64 %57, 0
  br i1 %58, label %59, label %66

59:                                               ; preds = %53
  %60 = getelementptr inbounds %struct.__ctx_args, ptr %6, i32 0, i32 4
  %61 = load ptr, ptr %60, align 8
  %62 = call ptr @JLI_List_combine(ptr noundef %61)
  store ptr %62, ptr %8, align 8
  %63 = load ptr, ptr %8, align 8
  call void @checkArg(ptr noundef %63)
  %64 = load ptr, ptr %5, align 8
  %65 = load ptr, ptr %8, align 8
  call void @JLI_List_add(ptr noundef %64, ptr noundef %65)
  br label %66

66:                                               ; preds = %59, %53
  br label %67

67:                                               ; preds = %66, %49
  %68 = getelementptr inbounds %struct.__ctx_args, ptr %6, i32 0, i32 4
  %69 = load ptr, ptr %68, align 8
  call void @JLI_List_free(ptr noundef %69)
  %70 = load ptr, ptr %5, align 8
  store ptr %70, ptr %2, align 8
  br label %71

71:                                               ; preds = %67, %26
  %72 = load ptr, ptr %2, align 8
  ret ptr %72
}

; Function Attrs: nounwind uwtable
define internal ptr @expandArgFile(ptr noundef %0) #0 {
  %2 = alloca ptr, align 8
  %3 = alloca ptr, align 8
  %4 = alloca %struct.stat, align 8
  %5 = alloca ptr, align 8
  store ptr %0, ptr %2, align 8
  %6 = load ptr, ptr %2, align 8
  %7 = call noalias ptr @fopen64(ptr noundef %6, ptr noundef @.str.18)
  store ptr %7, ptr %5, align 8
  %8 = load ptr, ptr %5, align 8
  %9 = icmp eq ptr %8, null
  br i1 %9, label %15, label %10

10:                                               ; preds = %1
  %11 = load ptr, ptr %5, align 8
  %12 = call i32 @fileno(ptr noundef %11) #8
  %13 = call i32 @fstat64(i32 noundef %12, ptr noundef %4) #8
  %14 = icmp ne i32 %13, 0
  br i1 %14, label %15, label %17

15:                                               ; preds = %10, %1
  %16 = load ptr, ptr %2, align 8
  call void (ptr, ...) @JLI_ReportMessage(ptr noundef @.str.19, ptr noundef %16)
  call void @exit(i32 noundef 1) #9
  unreachable

17:                                               ; preds = %10
  %18 = getelementptr inbounds %struct.stat, ptr %4, i32 0, i32 8
  %19 = load i64, ptr %18, align 8
  %20 = icmp sgt i64 %19, 2147483647
  br i1 %20, label %21, label %22

21:                                               ; preds = %17
  call void (ptr, ...) @JLI_ReportMessage(ptr noundef @.str.20, i64 noundef 2147483647)
  call void @exit(i32 noundef 1) #9
  unreachable

22:                                               ; preds = %17
  br label %23

23:                                               ; preds = %22
  %24 = load ptr, ptr %5, align 8
  %25 = call ptr @readArgFile(ptr noundef %24)
  store ptr %25, ptr %3, align 8
  %26 = load ptr, ptr %3, align 8
  %27 = icmp eq ptr %26, null
  br i1 %27, label %28, label %30

28:                                               ; preds = %23
  %29 = load ptr, ptr %2, align 8
  call void (ptr, ...) @JLI_ReportMessage(ptr noundef @.str.21, ptr noundef %29)
  call void @exit(i32 noundef 1) #9
  unreachable

30:                                               ; preds = %23
  %31 = load ptr, ptr %5, align 8
  %32 = call i32 @fclose(ptr noundef %31)
  %33 = load ptr, ptr %3, align 8
  ret ptr %33
}

; Function Attrs: nounwind uwtable
define internal ptr @expandArg(ptr noundef %0) #0 {
  %2 = alloca ptr, align 8
  %3 = alloca ptr, align 8
  store ptr %0, ptr %2, align 8
  %4 = call ptr @JLI_List_new(i64 noundef 8)
  store ptr %4, ptr %3, align 8
  %5 = load ptr, ptr %3, align 8
  %6 = load ptr, ptr %2, align 8
  %7 = call zeroext i8 @expand(ptr noundef %5, ptr noundef %6, ptr noundef null)
  %8 = load ptr, ptr %3, align 8
  ret ptr %8
}

; Function Attrs: nounwind uwtable
define ptr @JLI_PreprocessArg(ptr noundef %0, i8 noundef zeroext %1) #0 {
  %3 = alloca ptr, align 8
  %4 = alloca ptr, align 8
  %5 = alloca i8, align 1
  %6 = alloca ptr, align 8
  store ptr %0, ptr %4, align 8
  store i8 %1, ptr %5, align 1
  %7 = load i32, ptr @firstAppArgIndex, align 4
  %8 = icmp sgt i32 %7, 0
  br i1 %8, label %9, label %10

9:                                                ; preds = %2
  store ptr null, ptr %3, align 8
  br label %65

10:                                               ; preds = %2
  %11 = load i8, ptr @stopExpansion, align 1
  %12 = icmp ne i8 %11, 0
  br i1 %12, label %13, label %15

13:                                               ; preds = %10
  %14 = load ptr, ptr %4, align 8
  call void @checkArg(ptr noundef %14)
  store ptr null, ptr %3, align 8
  br label %65

15:                                               ; preds = %10
  %16 = load i8, ptr %5, align 1
  %17 = zext i8 %16 to i32
  %18 = icmp ne i32 %17, 0
  br i1 %18, label %19, label %30

19:                                               ; preds = %15
  %20 = load ptr, ptr %4, align 8
  %21 = call i32 @JLI_StrCCmp(ptr noundef %20, ptr noundef @.str)
  %22 = icmp eq i32 %21, 0
  br i1 %22, label %23, label %30

23:                                               ; preds = %19
  %24 = load ptr, ptr %4, align 8
  %25 = call ptr @strchr(ptr noundef %24, i32 noundef 32) #7
  %26 = icmp ne ptr %25, null
  br i1 %26, label %27, label %30

27:                                               ; preds = %23
  %28 = load ptr, ptr %4, align 8
  %29 = call ptr @expandArg(ptr noundef %28)
  store ptr %29, ptr %3, align 8
  br label %65

30:                                               ; preds = %23, %19, %15
  %31 = load ptr, ptr %4, align 8
  %32 = getelementptr inbounds i8, ptr %31, i64 0
  %33 = load i8, ptr %32, align 1
  %34 = sext i8 %33 to i32
  %35 = icmp ne i32 %34, 64
  br i1 %35, label %36, label %38

36:                                               ; preds = %30
  %37 = load ptr, ptr %4, align 8
  call void @checkArg(ptr noundef %37)
  store ptr null, ptr %3, align 8
  br label %65

38:                                               ; preds = %30
  %39 = load ptr, ptr %4, align 8
  %40 = getelementptr inbounds i8, ptr %39, i64 1
  %41 = load i8, ptr %40, align 1
  %42 = sext i8 %41 to i32
  %43 = icmp eq i32 %42, 0
  br i1 %43, label %44, label %46

44:                                               ; preds = %38
  %45 = load ptr, ptr %4, align 8
  call void @checkArg(ptr noundef %45)
  store ptr null, ptr %3, align 8
  br label %65

46:                                               ; preds = %38
  %47 = load ptr, ptr %4, align 8
  %48 = getelementptr inbounds i8, ptr %47, i32 1
  store ptr %48, ptr %4, align 8
  %49 = load ptr, ptr %4, align 8
  %50 = getelementptr inbounds i8, ptr %49, i64 0
  %51 = load i8, ptr %50, align 1
  %52 = sext i8 %51 to i32
  %53 = icmp eq i32 %52, 64
  br i1 %53, label %54, label %60

54:                                               ; preds = %46
  %55 = call ptr @JLI_List_new(i64 noundef 1)
  store ptr %55, ptr %6, align 8
  %56 = load ptr, ptr %4, align 8
  call void @checkArg(ptr noundef %56)
  %57 = load ptr, ptr %6, align 8
  %58 = load ptr, ptr %4, align 8
  %59 = call ptr @JLI_StringDup(ptr noundef %58)
  call void @JLI_List_add(ptr noundef %57, ptr noundef %59)
  br label %63

60:                                               ; preds = %46
  %61 = load ptr, ptr %4, align 8
  %62 = call ptr @expandArgFile(ptr noundef %61)
  store ptr %62, ptr %6, align 8
  br label %63

63:                                               ; preds = %60, %54
  %64 = load ptr, ptr %6, align 8
  store ptr %64, ptr %3, align 8
  br label %65

65:                                               ; preds = %63, %44, %36, %27, %13, %9
  %66 = load ptr, ptr %3, align 8
  ret ptr %66
}