; Function Attrs: nounwind uwtable
define ptr @JLI_PreprocessArg(ptr noundef %0, i8 noundef zeroext %1) local_unnamed_addr #2 {
  %3 = alloca [4096 x i8], align 16
  %4 = alloca %struct.__ctx_args, align 8
  %5 = alloca %struct.stat, align 8
  %6 = load i32, ptr @firstAppArgIndex, align 4
  %7 = icmp sgt i32 %6, 0
  br i1 %7, label %100, label %8

8:                                                ; preds = %2
  %9 = load i8, ptr @stopExpansion, align 1
  %.not = icmp eq i8 %9, 0
  br i1 %.not, label %11, label %10

10:                                               ; preds = %8
  tail call fastcc void @checkArg(ptr noundef %0)
  br label %100

11:                                               ; preds = %8
  %.not18 = icmp eq i8 %1, 0
  br i1 %.not18, label %19, label %12

12:                                               ; preds = %11
  %13 = tail call i32 @JLI_StrCCmp(ptr noundef %0, ptr noundef nonnull @.str) #12
  %14 = icmp eq i32 %13, 0
  br i1 %14, label %15, label %19

15:                                               ; preds = %12
  %16 = tail call ptr @strchr(ptr noundef nonnull dereferenceable(1) %0, i32 noundef 32) #13
  %.not19 = icmp eq ptr %16, null
  br i1 %.not19, label %19, label %17

17:                                               ; preds = %15
  %18 = tail call ptr @JLI_List_new(i64 noundef 8) #12
  tail call fastcc void @expand(ptr noundef %18, ptr noundef %0, ptr noundef null)
  br label %100

19:                                               ; preds = %15, %12, %11
  %20 = load i8, ptr %0, align 1
  %.not20 = icmp eq i8 %20, 64
  br i1 %.not20, label %22, label %21

21:                                               ; preds = %19
  tail call fastcc void @checkArg(ptr noundef nonnull %0)
  br label %100

22:                                               ; preds = %19
  %23 = getelementptr inbounds i8, ptr %0, i64 1
  %24 = load i8, ptr %23, align 1
  switch i8 %24, label %29 [
    i8 0, label %25
    i8 64, label %26
  ]

25:                                               ; preds = %22
  tail call fastcc void @checkArg(ptr noundef nonnull %0)
  br label %100

26:                                               ; preds = %22
  %27 = tail call ptr @JLI_List_new(i64 noundef 1) #12
  tail call fastcc void @checkArg(ptr noundef nonnull %23)
  %28 = tail call ptr @JLI_StringDup(ptr noundef nonnull %23) #12
  tail call void @JLI_List_add(ptr noundef %27, ptr noundef %28) #12
  br label %100

29:                                               ; preds = %22
  call void @llvm.lifetime.start.p0(i64 144, ptr nonnull %5)
  %30 = tail call noalias ptr @fopen64(ptr noundef nonnull %23, ptr noundef nonnull @.str.18)
  %31 = icmp eq ptr %30, null
  br i1 %31, label %35, label %32

32:                                               ; preds = %29
  %33 = tail call i32 @fileno(ptr noundef nonnull %30) #12
  %34 = call i32 @fstat64(i32 noundef %33, ptr noundef nonnull %5) #12
  %.not.i = icmp eq i32 %34, 0
  br i1 %.not.i, label %36, label %35

35:                                               ; preds = %32, %29
  tail call void (ptr, ...) @JLI_ReportMessage(ptr noundef nonnull @.str.19, ptr noundef nonnull %23) #12
  tail call void @exit(i32 noundef 1) #14
  unreachable

36:                                               ; preds = %32
  %37 = getelementptr inbounds i8, ptr %5, i64 48
  %38 = load i64, ptr %37, align 8
  %39 = icmp sgt i64 %38, 2147483647
  br i1 %39, label %40, label %41

40:                                               ; preds = %36
  tail call void (ptr, ...) @JLI_ReportMessage(ptr noundef nonnull @.str.20, i64 noundef 2147483647) #12
  tail call void @exit(i32 noundef 1) #14
  unreachable

41:                                               ; preds = %36
  call void @llvm.lifetime.start.p0(i64 4096, ptr nonnull %3)
  call void @llvm.lifetime.start.p0(i64 40, ptr nonnull %4)
  store i32 0, ptr %4, align 8
  %42 = tail call ptr @JLI_List_new(i64 noundef 4) #12
  %43 = getelementptr inbounds i8, ptr %4, i64 32
  store ptr %42, ptr %43, align 8
  %44 = getelementptr inbounds i8, ptr %4, i64 24
  store i8 34, ptr %44, align 8
  %45 = tail call ptr @JLI_List_new(i64 noundef 8) #12
  %46 = tail call i32 @feof(ptr noundef nonnull %30) #12
  %.not22.i.i = icmp eq i32 %46, 0
  br i1 %.not22.i.i, label %.lr.ph23.i.i, label %readArgFile.exit.i

.lr.ph23.i.i:                                     ; preds = %41
  %47 = getelementptr inbounds i8, ptr %4, i64 8
  %48 = getelementptr inbounds i8, ptr %4, i64 16
  br label %50

.loopexit.i.i:                                    ; preds = %checkArg.exit.i.i, %53
  %49 = call i32 @feof(ptr noundef nonnull %30) #12
  %.not.i.i = icmp eq i32 %49, 0
  br i1 %.not.i.i, label %50, label %._crit_edge.i.i, !llvm.loop !6

50:                                               ; preds = %.loopexit.i.i, %.lr.ph23.i.i
  %51 = call i64 @fread(ptr noundef nonnull %3, i64 noundef 1, i64 noundef 4096, ptr noundef nonnull %30)
  %52 = call i32 @ferror(ptr noundef nonnull %30) #12
  %.not17.i.i = icmp eq i32 %52, 0
  br i1 %.not17.i.i, label %53, label %readArgFile.exit.thread.i

readArgFile.exit.thread.i:                        ; preds = %50
  call void @JLI_List_free(ptr noundef %45) #12
  call void @llvm.lifetime.end.p0(i64 4096, ptr nonnull %3)
  call void @llvm.lifetime.end.p0(i64 40, ptr nonnull %4)
  br label %98

53:                                               ; preds = %50
  store ptr %3, ptr %47, align 8
  %54 = getelementptr inbounds i8, ptr %3, i64 %51
  store ptr %54, ptr %48, align 8
  %55 = call fastcc ptr @nextToken(ptr noundef nonnull %4)
  %.not1819.i.i = icmp eq ptr %55, null
  br i1 %.not1819.i.i, label %.loopexit.i.i, label %.lr.ph.i.i

.lr.ph.i.i:                                       ; preds = %53, %checkArg.exit.i.i
  %.020.i.i = phi ptr [ %90, %checkArg.exit.i.i ], [ %55, %53 ]
  %56 = load i64, ptr @argsCount, align 8
  %57 = add i64 %56, 1
  store i64 %57, ptr @argsCount, align 8
  %58 = load i8, ptr %.020.i.i, align 1
  %59 = icmp eq i8 %58, 45
  br i1 %59, label %60, label %83

60:                                               ; preds = %.lr.ph.i.i
  store i1 false, ptr @expectingNoDashArg, align 1
  %61 = call zeroext i8 @IsWhiteSpaceOption(ptr noundef nonnull %.020.i.i) #12
  %.not.i.i.i = icmp eq i8 %61, 0
  br i1 %.not.i.i.i, label %75, label %62

62:                                               ; preds = %60
  store i1 true, ptr @expectingNoDashArg, align 1
  %63 = call i32 @strcmp(ptr noundef nonnull dereferenceable(1) %.020.i.i, ptr noundef nonnull dereferenceable(5) @.str.1) #13
  %64 = icmp eq i32 %63, 0
  br i1 %64, label %74, label %65

65:                                               ; preds = %62
  %66 = call i32 @strcmp(ptr noundef nonnull dereferenceable(1) %.020.i.i, ptr noundef nonnull dereferenceable(9) @.str.3) #13
  %67 = icmp eq i32 %66, 0
  br i1 %67, label %74, label %sub_0.i.i.i

sub_0.i.i.i:                                      ; preds = %65
  %68 = load i8, ptr %.020.i.i, align 1
  %.not12.i.i.i = icmp eq i8 %68, 45
  br i1 %.not12.i.i.i, label %sub_1.i.i.i, label %checkArg.exit.i.i

sub_1.i.i.i:                                      ; preds = %sub_0.i.i.i
  %69 = getelementptr inbounds i8, ptr %.020.i.i, i64 1
  %70 = load i8, ptr %69, align 1
  %.not13.i.i.i = icmp eq i8 %70, 109
  br i1 %.not13.i.i.i, label %.tail.i.i.i, label %checkArg.exit.i.i

.tail.i.i.i:                                      ; preds = %sub_1.i.i.i
  %71 = getelementptr inbounds i8, ptr %.020.i.i, i64 2
  %72 = load i8, ptr %71, align 1
  %73 = icmp eq i8 %72, 0
  br i1 %73, label %74, label %checkArg.exit.i.i

74:                                               ; preds = %.tail.i.i.i, %65, %62
  store i1 false, ptr @expectingNoDashArg, align 1
  br label %checkArg.exit.i.i

75:                                               ; preds = %60
  %76 = call i32 @strcmp(ptr noundef nonnull dereferenceable(1) %.020.i.i, ptr noundef nonnull dereferenceable(17) @.str.17) #13
  %77 = icmp eq i32 %76, 0
  br i1 %77, label %78, label %79

78:                                               ; preds = %75
  store i8 1, ptr @stopExpansion, align 1
  br label %checkArg.exit.i.i

79:                                               ; preds = %75
  %80 = call i32 @JLI_StrCCmp(ptr noundef nonnull %.020.i.i, ptr noundef nonnull @.str.4) #12
  %81 = icmp eq i32 %80, 0
  %82 = load i64, ptr @argsCount, align 8
  %spec.select.i.i.i = select i1 %81, i64 %82, i64 0
  br label %84

83:                                               ; preds = %.lr.ph.i.i
  %.b.i.i.i = load i1, ptr @expectingNoDashArg, align 1
  %spec.select9.i.i.i = select i1 %.b.i.i.i, i64 0, i64 %57
  store i1 false, ptr @expectingNoDashArg, align 1
  br label %84

84:                                               ; preds = %83, %79
  %.1.i.i.i = phi i64 [ %spec.select9.i.i.i, %83 ], [ %spec.select.i.i.i, %79 ]
  %85 = load i32, ptr @firstAppArgIndex, align 4
  %86 = icmp eq i32 %85, -1
  %87 = icmp ne i64 %.1.i.i.i, 0
  %or.cond.i.i.i = select i1 %86, i1 %87, i1 false
  br i1 %or.cond.i.i.i, label %88, label %checkArg.exit.i.i

88:                                               ; preds = %84
  %89 = trunc i64 %.1.i.i.i to i32
  store i32 %89, ptr @firstAppArgIndex, align 4
  br label %checkArg.exit.i.i

checkArg.exit.i.i:                                ; preds = %88, %84, %78, %74, %.tail.i.i.i, %sub_1.i.i.i, %sub_0.i.i.i
  call void @JLI_List_add(ptr noundef %45, ptr noundef nonnull %.020.i.i) #12
  %90 = call fastcc ptr @nextToken(ptr noundef nonnull %4)
  %.not18.i.i = icmp eq ptr %90, null
  br i1 %.not18.i.i, label %.loopexit.i.i, label %.lr.ph.i.i, !llvm.loop !8

._crit_edge.i.i:                                  ; preds = %.loopexit.i.i
  %.pre.i.i = load i32, ptr %4, align 8
  switch i32 %.pre.i.i, label %._crit_edge.i.._crit_edge._crit_edge.i_crit_edge.i [
    i32 5, label %91
    i32 2, label %91
  ]

._crit_edge.i.._crit_edge._crit_edge.i_crit_edge.i: ; preds = %._crit_edge.i.i
  %.pre24.i.pre.i = load ptr, ptr %43, align 8
  br label %readArgFile.exit.i

91:                                               ; preds = %._crit_edge.i.i, %._crit_edge.i.i
  %92 = load ptr, ptr %43, align 8
  %93 = getelementptr inbounds i8, ptr %92, i64 8
  %94 = load i64, ptr %93, align 8
  %.not16.i.i = icmp eq i64 %94, 0
  br i1 %.not16.i.i, label %readArgFile.exit.i, label %95

95:                                               ; preds = %91
  %96 = call ptr @JLI_List_combine(ptr noundef nonnull %92) #12
  call fastcc void @checkArg(ptr noundef %96)
  call void @JLI_List_add(ptr noundef %45, ptr noundef %96) #12
  br label %readArgFile.exit.i

readArgFile.exit.i:                               ; preds = %95, %91, %._crit_edge.i.._crit_edge._crit_edge.i_crit_edge.i, %41
  %.sink.i.i = phi ptr [ %92, %91 ], [ %92, %95 ], [ %.pre24.i.pre.i, %._crit_edge.i.._crit_edge._crit_edge.i_crit_edge.i ], [ %42, %41 ]
  call void @JLI_List_free(ptr noundef %.sink.i.i) #12
  call void @llvm.lifetime.end.p0(i64 4096, ptr nonnull %3)
  call void @llvm.lifetime.end.p0(i64 40, ptr nonnull %4)
  %97 = icmp eq ptr %45, null
  br i1 %97, label %98, label %expandArgFile.exit

98:                                               ; preds = %readArgFile.exit.i, %readArgFile.exit.thread.i
  call void (ptr, ...) @JLI_ReportMessage(ptr noundef nonnull @.str.21, ptr noundef nonnull %23) #12
  call void @exit(i32 noundef 1) #14
  unreachable

expandArgFile.exit:                               ; preds = %readArgFile.exit.i
  %99 = call i32 @fclose(ptr noundef nonnull %30)
  call void @llvm.lifetime.end.p0(i64 144, ptr nonnull %5)
  br label %100

100:                                              ; preds = %26, %expandArgFile.exit, %2, %25, %21, %17, %10
  %.016 = phi ptr [ null, %10 ], [ %18, %17 ], [ null, %21 ], [ null, %25 ], [ null, %2 ], [ %27, %26 ], [ %45, %expandArgFile.exit ]
  ret ptr %.016
}